; Function Attrs: nounwind uwtable
define i32 @exr_get_chunk_table_offset(ptr noundef %0, i32 noundef %1, ptr noundef writeonly %2) local_unnamed_addr #0 {
  %.not = icmp eq ptr %0, null
  br i1 %.not, label %38, label %4

4:                                                ; preds = %3
  %5 = load i8, ptr %0, align 8, !tbaa !3
  %6 = icmp eq i8 %5, 1
  br i1 %6, label %7, label %10

7:                                                ; preds = %4
  %8 = getelementptr inbounds nuw i8, ptr %0, i64 504
  %9 = tail call i32 @pthread_mutex_lock(ptr noundef nonnull %8) #8
  br label %10

10:                                               ; preds = %7, %4
  %11 = icmp slt i32 %1, 0
  br i1 %11, label %15, label %12

12:                                               ; preds = %10
  %13 = getelementptr inbounds nuw i8, ptr %0, i64 196
  %14 = load i32, ptr %13, align 4, !tbaa !22
  %.not21 = icmp slt i32 %1, %14
  br i1 %.not21, label %25, label %15

15:                                               ; preds = %12, %10
  %16 = load i8, ptr %0, align 8, !tbaa !3
  %17 = icmp eq i8 %16, 1
  br i1 %17, label %18, label %21

18:                                               ; preds = %15
  %19 = getelementptr inbounds nuw i8, ptr %0, i64 504
  %20 = tail call i32 @pthread_mutex_unlock(ptr noundef nonnull %19) #8
  br label %21

21:                                               ; preds = %18, %15
  %22 = getelementptr inbounds nuw i8, ptr %0, i64 72
  %23 = load ptr, ptr %22, align 8, !tbaa !23
  %24 = tail call i32 (ptr, i32, ptr, ...) %23(ptr noundef nonnull %0, i32 noundef 4, ptr noundef nonnull @.str, i32 noundef %1) #8
  br label %38

25:                                               ; preds = %12
  %.not22 = icmp eq ptr %2, null
  br i1 %.not22, label %26, label %30

26:                                               ; preds = %25
  %27 = getelementptr inbounds nuw i8, ptr %0, i64 56
  %28 = load ptr, ptr %27, align 8, !tbaa !24
  %29 = tail call i32 %28(ptr noundef nonnull %0, i32 noundef 3) #8
  br label %38

30:                                               ; preds = %25
  %31 = getelementptr inbounds nuw i8, ptr %0, i64 472
  %32 = load ptr, ptr %31, align 8, !tbaa !25
  %33 = zext nneg i32 %1 to i64
  %34 = getelementptr inbounds nuw ptr, ptr %32, i64 %33
  %35 = load ptr, ptr %34, align 8, !tbaa !26
  %36 = getelementptr inbounds nuw i8, ptr %35, i64 248
  %37 = load i64, ptr %36, align 8, !tbaa !27
  store i64 %37, ptr %2, align 8, !tbaa !28
  br label %38

38:                                               ; preds = %3, %30, %26, %21
  %.0 = phi i32 [ %24, %21 ], [ 0, %30 ], [ %29, %26 ], [ 2, %3 ]
  ret i32 %.0
}